Certificate:
    Data:
        Version: 3 (0x2)
        Serial Number:
            d1:cc:f1:3f:8f:8d:18:bb
        Signature Algorithm: md5WithRSAEncryption
        Issuer: C=RU, ST=Russian Federation, L=Moscow, O=JSC MTP RUBIN, OU=Rubin Certification, CN=JSC MTP RUBIN CA/emailAddress=certs@rubin.ru
        Validity
            Not Before: Jan 25 17:15:27 2006 GMT
            Not After : Jan 25 17:15:27 2008 GMT
        Subject: C=RU, ST=Russian Federation, L=Moscow, O=JSC MTP RUBIN, OU=Rubin Certification, CN=JSC MTP RUBIN CA/emailAddress=certs@rubin.ru
        Subject Public Key Info:
            Public Key Algorithm: rsaEncryption
            RSA Public Key: (1024 bit)
                Modulus (1024 bit):
                    00:bc:b1:51:8c:4a:5f:96:bf:68:f2:70:db:eb:b3:
                    d1:d2:45:cc:ae:5f:d8:df:8b:e3:80:f6:bd:a1:2e:
                    cb:dd:3c:52:09:87:51:84:0d:e4:c9:3b:2a:5c:3a:
                    7b:84:c5:58:ae:fa:c8:d4:b5:92:a7:80:ab:b9:2e:
                    b6:18:fe:04:86:72:4f:3a:8b:9d:93:21:42:9a:37:
                    a2:79:2a:b7:a5:00:d9:78:6a:68:3a:03:cf:5b:2a:
                    c1:a8:f8:ce:dd:63:a6:cf:fd:d5:89:e7:a7:62:0f:
                    f8:7b:db:a6:b6:e5:42:bc:3f:dd:90:46:2d:b5:b6:
                    8a:2b:c4:be:01:fc:0d:c4:e7
                Exponent: 65537 (0x10001)
        X509v3 extensions:
            X509v3 Basic Constraints: 
                CA:FALSE
            Netscape Comment: 
                OpenSSL Generated Certificate
            X509v3 Subject Key Identifier: 
                23:6E:53:8C:52:DD:D8:88:04:94:B9:02:59:5F:A2:7F:4D:94:C3:D9
            X509v3 Authority Key Identifier: 
                keyid:56:4D:68:8E:E6:C8:33:22:D3:22:87:B2:D0:15:1B:99:49:57:8A:F3
                DirName:/C=RU/ST=Russian Federation/L=Moscow/O=JSC MTP RUBIN/OU=Rubin Certification/CN=JSC MTP RUBIN CA/emailAddress=certs@rubin.ru
                serial:D1:CC:F1:3F:8F:8D:18:BA

    Signature Algorithm: md5WithRSAEncryption
        00:79:59:25:9f:e8:af:7e:98:00:7d:1e:e4:af:25:13:c6:86:
        e8:c3:27:23:f3:02:b5:e5:0f:7c:31:d7:82:4e:f8:a7:33:25:
        3c:07:d9:bd:d8:25:c8:cf:8c:0d:2c:72:c3:21:23:ea:03:06:
        5e:29:5d:07:df:36:21:63:97:0d:b6:15:98:12:2a:c0:41:ea:
        25:c0:6a:5e:df:65:ec:11:04:9f:8f:76:e6:e6:e5:c0:c2:69:
        e1:1e:92:3e:a0:94:3e:18:58:76:47:c2:80:a6:9d:95:6c:5d:
        db:fe:ae:c2:f8:27:88:bb:af:57:8b:f9:f9:6a:69:bf:93:5f:
        5f:e1
-----BEGIN CERTIFICATE-----
MIIEFzCCA4CgAwIBAgIJANHM8T+PjRi7MA0GCSqGSIb3DQEBBAUAMIGrMQswCQYD
VQQGEwJSVTEbMBkGA1UECBMSUnVzc2lhbiBGZWRlcmF0aW9uMQ8wDQYDVQQHEwZN
b3Njb3cxFjAUBgNVBAoTDUpTQyBNVFAgUlVCSU4xHDAaBgNVBAsTE1J1YmluIENl
cnRpZmljYXRpb24xGTAXBgNVBAMTEEpTQyBNVFAgUlVCSU4gQ0ExHTAbBgkqhkiG
9w0BCQEWDmNlcnRzQHJ1YmluLnJ1MB4XDTA2MDEyNTE3MTUyN1oXDTA4MDEyNTE3
MTUyN1owgasxCzAJBgNVBAYTAlJVMRswGQYDVQQIExJSdXNzaWFuIEZlZGVyYXRp
b24xDzANBgNVBAcTBk1vc2NvdzEWMBQGA1UEChMNSlNDIE1UUCBSVUJJTjEcMBoG
A1UECxMTUnViaW4gQ2VydGlmaWNhdGlvbjEZMBcGA1UEAxMQSlNDIE1UUCBSVUJJ
TiBDQTEdMBsGCSqGSIb3DQEJARYOY2VydHNAcnViaW4ucnUwgZ8wDQYJKoZIhvcN
AQEBBQADgY0AMIGJAoGBALyxUYxKX5a/aPJw2+uz0dJFzK5f2N+L44D2vaEuy908
UgmHUYQN5Mk7Klw6e4TFWK76yNS1kqeAq7kuthj+BIZyTzqLnZMhQpo3onkqt6UA
2XhqaDoDz1sqwaj4zt1jps/91Ynnp2IP+HvbprblQrw/3ZBGLbW2iivEvgH8DcTn
AgMBAAGjggE/MIIBOzAJBgNVHRMEAjAAMCwGCWCGSAGG+EIBDQQfFh1PcGVuU1NM
IEdlbmVyYXRlZCBDZXJ0aWZpY2F0ZTAdBgNVHQ4EFgQUI25TjFLd2IgElLkCWV+i
f02Uw9kwgeAGA1UdIwSB2DCB1YAUVk1ojubIMyLTIoey0BUbmUlXivOhgbGkga4w
gasxCzAJBgNVBAYTAlJVMRswGQYDVQQIExJSdXNzaWFuIEZlZGVyYXRpb24xDzAN
BgNVBAcTBk1vc2NvdzEWMBQGA1UEChMNSlNDIE1UUCBSVUJJTjEcMBoGA1UECxMT
UnViaW4gQ2VydGlmaWNhdGlvbjEZMBcGA1UEAxMQSlNDIE1UUCBSVUJJTiBDQTEd
MBsGCSqGSIb3DQEJARYOY2VydHNAcnViaW4ucnWCCQDRzPE/j40YujANBgkqhkiG
9w0BAQQFAAOBgQAAeVkln+ivfpgAfR7kryUTxobowycj8wK15Q98MdeCTvinMyU8
B9m92CXIz4wNLHLDISPqAwZeKV0H3zYhY5cNthWYEirAQeolwGpe32XsEQSfj3bm
5uXAwmnhHpI+oJQ+GFh2R8KApp2VbF3b/q7C+CeIu69Xi/n5amm/k19f4Q==
-----END CERTIFICATE-----
