Certificate:
    Data:
        Version: 3 (0x2)
        Serial Number:
            d1:cc:f1:3f:8f:8d:18:bc
        Signature Algorithm: md5WithRSAEncryption
        Issuer: C=RU, ST=Russian Federation, L=Moscow, O=JSC MTP RUBIN, OU=Rubin Certification, CN=JSC MTP RUBIN CA/emailAddress=certs@rubin.ru
        Validity
            Not Before: Jan 25 18:47:36 2006 GMT
            Not After : Jan 25 18:47:36 2008 GMT
        Subject: C=RU, ST=Russian Federation, L=Moscow, O=JSC MTP RUBIN, OU=ITC, CN=mailer.rubin.ru/emailAddress=certs@rubin.ru
        Subject Public Key Info:
            Public Key Algorithm: rsaEncryption
            RSA Public Key: (1024 bit)
                Modulus (1024 bit):
                    00:ac:f8:18:38:b0:e7:4f:db:c3:1e:59:1b:a0:8c:
                    6c:b3:93:94:4e:97:35:0e:0d:e3:b6:31:57:84:a0:
                    01:3b:c7:cd:84:89:ff:7d:8c:6a:3b:7c:e0:92:56:
                    34:c5:c9:a4:54:64:41:f5:e1:1d:6e:8e:06:a8:6a:
                    d3:eb:a7:e7:98:48:9e:75:58:78:3b:5b:e5:9a:43:
                    5d:68:3b:27:ed:4d:c7:37:1e:88:9a:50:86:bd:48:
                    6a:01:a8:49:5e:e1:28:e4:93:da:59:e6:e9:74:d7:
                    2f:79:04:20:5c:ff:30:2c:87:c9:6e:15:a4:d4:d3:
                    fe:ed:37:5a:d8:7d:f4:a2:8f
                Exponent: 65537 (0x10001)
        X509v3 extensions:
            X509v3 Basic Constraints: 
                CA:FALSE
            Netscape Comment: 
                OpenSSL Generated Certificate
            X509v3 Subject Key Identifier: 
                01:C9:00:6C:64:EF:CB:2A:B6:41:34:55:EF:28:B1:EC:C1:86:20:25
            X509v3 Authority Key Identifier: 
                keyid:56:4D:68:8E:E6:C8:33:22:D3:22:87:B2:D0:15:1B:99:49:57:8A:F3
                DirName:/C=RU/ST=Russian Federation/L=Moscow/O=JSC MTP RUBIN/OU=Rubin Certification/CN=JSC MTP RUBIN CA/emailAddress=certs@rubin.ru
                serial:D1:CC:F1:3F:8F:8D:18:BA

    Signature Algorithm: md5WithRSAEncryption
        56:59:d9:cf:06:3d:6c:88:9c:0d:2b:11:6c:d4:43:e3:3e:af:
        f8:ab:7e:de:dc:ac:bf:9e:6a:a9:ef:6b:42:1a:d9:f2:8f:ee:
        22:60:34:60:98:1d:e1:a3:f3:da:24:97:44:d9:e7:98:1d:ab:
        68:07:34:99:c5:7f:60:5f:ce:2e:aa:61:c4:51:41:56:ba:97:
        35:9d:c0:e6:54:2e:c0:d9:c2:2c:c3:d9:41:cb:39:3c:4d:05:
        59:03:6e:9b:07:14:98:89:7f:4a:44:c7:06:6b:a8:61:fc:3d:
        f0:fd:76:7a:fd:4b:15:e1:53:3a:b7:15:61:e2:32:77:4d:28:
        70:d4
-----BEGIN CERTIFICATE-----
MIIEBjCCA2+gAwIBAgIJANHM8T+PjRi8MA0GCSqGSIb3DQEBBAUAMIGrMQswCQYD
VQQGEwJSVTEbMBkGA1UECBMSUnVzc2lhbiBGZWRlcmF0aW9uMQ8wDQYDVQQHEwZN
b3Njb3cxFjAUBgNVBAoTDUpTQyBNVFAgUlVCSU4xHDAaBgNVBAsTE1J1YmluIENl
cnRpZmljYXRpb24xGTAXBgNVBAMTEEpTQyBNVFAgUlVCSU4gQ0ExHTAbBgkqhkiG
9w0BCQEWDmNlcnRzQHJ1YmluLnJ1MB4XDTA2MDEyNTE4NDczNloXDTA4MDEyNTE4
NDczNlowgZoxCzAJBgNVBAYTAlJVMRswGQYDVQQIExJSdXNzaWFuIEZlZGVyYXRp
b24xDzANBgNVBAcTBk1vc2NvdzEWMBQGA1UEChMNSlNDIE1UUCBSVUJJTjEMMAoG
A1UECxMDSVRDMRgwFgYDVQQDEw9tYWlsZXIucnViaW4ucnUxHTAbBgkqhkiG9w0B
CQEWDmNlcnRzQHJ1YmluLnJ1MIGfMA0GCSqGSIb3DQEBAQUAA4GNADCBiQKBgQCs
+Bg4sOdP28MeWRugjGyzk5ROlzUODeO2MVeEoAE7x82Eif99jGo7fOCSVjTFyaRU
ZEH14R1ujgaoatPrp+eYSJ51WHg7W+WaQ11oOyftTcc3HoiaUIa9SGoBqEle4Sjk
k9pZ5ul01y95BCBc/zAsh8luFaTU0/7tN1rYffSijwIDAQABo4IBPzCCATswCQYD
VR0TBAIwADAsBglghkgBhvhCAQ0EHxYdT3BlblNTTCBHZW5lcmF0ZWQgQ2VydGlm
aWNhdGUwHQYDVR0OBBYEFAHJAGxk78sqtkE0Ve8osezBhiAlMIHgBgNVHSMEgdgw
gdWAFFZNaI7myDMi0yKHstAVG5lJV4rzoYGxpIGuMIGrMQswCQYDVQQGEwJSVTEb
MBkGA1UECBMSUnVzc2lhbiBGZWRlcmF0aW9uMQ8wDQYDVQQHEwZNb3Njb3cxFjAU
BgNVBAoTDUpTQyBNVFAgUlVCSU4xHDAaBgNVBAsTE1J1YmluIENlcnRpZmljYXRp
b24xGTAXBgNVBAMTEEpTQyBNVFAgUlVCSU4gQ0ExHTAbBgkqhkiG9w0BCQEWDmNl
cnRzQHJ1YmluLnJ1ggkA0czxP4+NGLowDQYJKoZIhvcNAQEEBQADgYEAVlnZzwY9
bIicDSsRbNRD4z6v+Kt+3tysv55qqe9rQhrZ8o/uImA0YJgd4aPz2iSXRNnnmB2r
aAc0mcV/YF/OLqphxFFBVrqXNZ3A5lQuwNnCLMPZQcs5PE0FWQNumwcUmIl/SkTH
BmuoYfw98P12ev1LFeFTOrcVYeIyd00ocNQ=
-----END CERTIFICATE-----
