Certificate:
    Data:
        Version: 3 (0x2)
        Serial Number:
            d1:cc:f1:3f:8f:8d:18:bd
        Signature Algorithm: md5WithRSAEncryption
        Issuer: C=RU, ST=Russian Federation, L=Moscow, O=JSC MTP RUBIN, OU=Rubin Certification, CN=JSC MTP RUBIN CA/emailAddress=certs@rubin.ru
        Validity
            Not Before: Jan 30 08:36:09 2006 GMT
            Not After : Jan 30 08:36:09 2008 GMT
        Subject: C=RU, ST=Russian Federation, L=Moscow, O=JSC MTP RUBIN, OU=ITC, CN=corp.rubin.ru/emailAddress=postmaster@rubin.ru
        Subject Public Key Info:
            Public Key Algorithm: rsaEncryption
            RSA Public Key: (1024 bit)
                Modulus (1024 bit):
                    00:97:34:aa:6e:9f:66:95:90:fe:fe:ca:e5:5b:40:
                    80:b4:52:b9:73:1d:04:66:93:04:18:b9:81:15:e5:
                    9f:6c:89:b0:ac:9b:12:5e:0f:79:dd:f1:1b:11:40:
                    01:ae:1e:d7:0d:7a:05:c9:48:95:80:39:85:69:00:
                    6f:29:7a:52:0d:36:07:e1:1a:62:5a:a9:bb:3e:17:
                    8d:97:0c:37:f8:3c:f2:e2:ca:7b:9f:0c:be:93:c7:
                    70:e0:3a:e4:5f:ec:06:d6:b1:3f:1d:f1:a6:b2:9f:
                    cc:f0:c5:f0:e9:22:41:98:6a:b6:ba:b4:c3:7d:09:
                    5b:99:0c:e1:4d:cf:55:16:91
                Exponent: 65537 (0x10001)
        X509v3 extensions:
            X509v3 Basic Constraints: 
                CA:FALSE
            Netscape Comment: 
                OpenSSL Generated Certificate
            X509v3 Subject Key Identifier: 
                D1:C4:9B:59:32:ED:AA:31:6A:49:A5:14:00:B9:26:CB:9D:33:3F:92
            X509v3 Authority Key Identifier: 
                keyid:56:4D:68:8E:E6:C8:33:22:D3:22:87:B2:D0:15:1B:99:49:57:8A:F3
                DirName:/C=RU/ST=Russian Federation/L=Moscow/O=JSC MTP RUBIN/OU=Rubin Certification/CN=JSC MTP RUBIN CA/emailAddress=certs@rubin.ru
                serial:D1:CC:F1:3F:8F:8D:18:BA

    Signature Algorithm: md5WithRSAEncryption
        7b:6c:95:41:2a:b4:35:1a:e5:a1:63:6c:d3:b6:04:cb:51:bf:
        b5:f5:af:1d:f4:9c:3d:44:db:01:38:cf:c1:c6:d0:ab:d2:07:
        8f:95:32:51:3e:00:28:08:45:41:68:fe:af:fa:68:9d:6a:f1:
        bd:f7:26:67:7f:99:ab:1d:67:51:b1:be:b1:2d:0d:9e:58:3b:
        18:35:4c:be:97:8a:60:dd:d7:3c:ef:37:3a:47:ea:1b:0c:c8:
        82:76:ec:e0:94:ce:3a:b8:09:c1:4a:e7:6a:9e:f8:f2:3d:33:
        6c:5b:a5:65:30:1c:8d:a2:56:09:45:9d:cd:b2:a6:6a:b4:30:
        1a:21
-----BEGIN CERTIFICATE-----
MIIECTCCA3KgAwIBAgIJANHM8T+PjRi9MA0GCSqGSIb3DQEBBAUAMIGrMQswCQYD
VQQGEwJSVTEbMBkGA1UECBMSUnVzc2lhbiBGZWRlcmF0aW9uMQ8wDQYDVQQHEwZN
b3Njb3cxFjAUBgNVBAoTDUpTQyBNVFAgUlVCSU4xHDAaBgNVBAsTE1J1YmluIENl
cnRpZmljYXRpb24xGTAXBgNVBAMTEEpTQyBNVFAgUlVCSU4gQ0ExHTAbBgkqhkiG
9w0BCQEWDmNlcnRzQHJ1YmluLnJ1MB4XDTA2MDEzMDA4MzYwOVoXDTA4MDEzMDA4
MzYwOVowgZ0xCzAJBgNVBAYTAlJVMRswGQYDVQQIExJSdXNzaWFuIEZlZGVyYXRp
b24xDzANBgNVBAcTBk1vc2NvdzEWMBQGA1UEChMNSlNDIE1UUCBSVUJJTjEMMAoG
A1UECxMDSVRDMRYwFAYDVQQDEw1jb3JwLnJ1YmluLnJ1MSIwIAYJKoZIhvcNAQkB
FhNwb3N0bWFzdGVyQHJ1YmluLnJ1MIGfMA0GCSqGSIb3DQEBAQUAA4GNADCBiQKB
gQCXNKpun2aVkP7+yuVbQIC0UrlzHQRmkwQYuYEV5Z9sibCsmxJeD3nd8RsRQAGu
HtcNegXJSJWAOYVpAG8pelINNgfhGmJaqbs+F42XDDf4PPLiynufDL6Tx3DgOuRf
7AbWsT8d8aayn8zwxfDpIkGYara6tMN9CVuZDOFNz1UWkQIDAQABo4IBPzCCATsw
CQYDVR0TBAIwADAsBglghkgBhvhCAQ0EHxYdT3BlblNTTCBHZW5lcmF0ZWQgQ2Vy
dGlmaWNhdGUwHQYDVR0OBBYEFNHEm1ky7aoxakmlFAC5JsudMz+SMIHgBgNVHSME
gdgwgdWAFFZNaI7myDMi0yKHstAVG5lJV4rzoYGxpIGuMIGrMQswCQYDVQQGEwJS
VTEbMBkGA1UECBMSUnVzc2lhbiBGZWRlcmF0aW9uMQ8wDQYDVQQHEwZNb3Njb3cx
FjAUBgNVBAoTDUpTQyBNVFAgUlVCSU4xHDAaBgNVBAsTE1J1YmluIENlcnRpZmlj
YXRpb24xGTAXBgNVBAMTEEpTQyBNVFAgUlVCSU4gQ0ExHTAbBgkqhkiG9w0BCQEW
DmNlcnRzQHJ1YmluLnJ1ggkA0czxP4+NGLowDQYJKoZIhvcNAQEEBQADgYEAe2yV
QSq0NRrloWNs07YEy1G/tfWvHfScPUTbATjPwcbQq9IHj5UyUT4AKAhFQWj+r/po
nWrxvfcmZ3+Zqx1nUbG+sS0Nnlg7GDVMvpeKYN3XPO83OkfqGwzIgnbs4JTOOrgJ
wUrnap748j0zbFulZTAcjaJWCUWdzbKmarQwGiE=
-----END CERTIFICATE-----
